; ModuleID = '17/27.c'
source_filename = "17/27.c"
target datalayout = "e-m:e-p270:32:32-p271:32:32-p272:64:64-i64:64-f80:128-n8:16:32:64-S128"
target triple = "x86_64-pc-linux-gnu"

@.str = private unnamed_addr constant [3 x i8] c"%s\00", align 1
@.str.1 = private unnamed_addr constant [4 x i8] c"%s\0A\00", align 1
@.str.2 = private unnamed_addr constant [2 x i8] c"?\00", align 1
@.str.3 = private unnamed_addr constant [2 x i8] c"$\00", align 1
@.str.4 = private unnamed_addr constant [2 x i8] c" \00", align 1
@.str.5 = private unnamed_addr constant [2 x i8] c"\0A\00", align 1

; Function Attrs: noinline nounwind uwtable
define dso_local i32 @main() #0 {
  %1 = alloca i32, align 4
  %2 = alloca i32, align 4
  %3 = alloca i32, align 4
  %4 = alloca i32, align 4
  %5 = alloca i32, align 4
  %6 = alloca [102 x i32], align 16
  %7 = alloca [102 x i32], align 16
  %8 = alloca i32, align 4
  %9 = alloca [102 x i8], align 16
  store i32 0, i32* %1, align 4
  store i32 0, i32* %5, align 4
  %10 = bitcast [102 x i32]* %6 to i8*
  call void @llvm.memset.p0i8.i64(i8* align 16 %10, i8 0, i64 408, i1 false)
  %11 = bitcast i8* %10 to <{ i32, [101 x i32] }>*
  %12 = getelementptr inbounds <{ i32, [101 x i32] }>, <{ i32, [101 x i32] }>* %11, i32 0, i32 0
  store i32 -1, i32* %12, align 16
  %13 = bitcast [102 x i32]* %7 to i8*
  call void @llvm.memset.p0i8.i64(i8* align 16 %13, i8 0, i64 408, i1 false)
  store i32 0, i32* %8, align 4
  br label %14

14:                                               ; preds = %151, %0
  %15 = getelementptr inbounds [102 x i8], [102 x i8]* %9, i64 0, i64 0
  %16 = call i32 (i8*, ...) @__isoc99_scanf(i8* getelementptr inbounds ([3 x i8], [3 x i8]* @.str, i64 0, i64 0), i8* %15)
  %17 = icmp ne i32 %16, -1
  br i1 %17, label %18, label %153

18:                                               ; preds = %14
  %19 = getelementptr inbounds [102 x i8], [102 x i8]* %9, i64 0, i64 0
  %20 = call i32 (i8*, ...) @printf(i8* getelementptr inbounds ([4 x i8], [4 x i8]* @.str.1, i64 0, i64 0), i8* %19)
  %21 = getelementptr inbounds [102 x i8], [102 x i8]* %9, i64 0, i64 0
  %22 = call i64 @strlen(i8* %21) #4
  %23 = trunc i64 %22 to i32
  store i32 %23, i32* %3, align 4
  store i32 0, i32* %4, align 4
  store i32 0, i32* %2, align 4
  br label %24

24:                                               ; preds = %64, %18
  %25 = load i32, i32* %2, align 4
  %26 = load i32, i32* %3, align 4
  %27 = icmp slt i32 %25, %26
  br i1 %27, label %28, label %67

28:                                               ; preds = %24
  %29 = load i32, i32* %2, align 4
  %30 = sext i32 %29 to i64
  %31 = getelementptr inbounds [102 x i8], [102 x i8]* %9, i64 0, i64 %30
  %32 = load i8, i8* %31, align 1
  %33 = sext i8 %32 to i32
  %34 = icmp eq i32 %33, 40
  br i1 %34, label %35, label %42

35:                                               ; preds = %28
  %36 = load i32, i32* %4, align 4
  %37 = add nsw i32 %36, 1
  store i32 %37, i32* %4, align 4
  %38 = load i32, i32* %2, align 4
  %39 = load i32, i32* %4, align 4
  %40 = sext i32 %39 to i64
  %41 = getelementptr inbounds [102 x i32], [102 x i32]* %6, i64 0, i64 %40
  store i32 %38, i32* %41, align 4
  br label %42

42:                                               ; preds = %35, %28
  %43 = load i32, i32* %2, align 4
  %44 = sext i32 %43 to i64
  %45 = getelementptr inbounds [102 x i8], [102 x i8]* %9, i64 0, i64 %44
  %46 = load i8, i8* %45, align 1
  %47 = sext i8 %46 to i32
  %48 = icmp eq i32 %47, 41
  br i1 %48, label %49, label %63

49:                                               ; preds = %42
  %50 = load i32, i32* %4, align 4
  %51 = icmp eq i32 %50, 0
  br i1 %51, label %52, label %56

52:                                               ; preds = %49
  %53 = load i32, i32* %2, align 4
  %54 = sext i32 %53 to i64
  %55 = getelementptr inbounds [102 x i32], [102 x i32]* %7, i64 0, i64 %54
  store i32 2, i32* %55, align 4
  br label %62

56:                                               ; preds = %49
  %57 = load i32, i32* %4, align 4
  %58 = sext i32 %57 to i64
  %59 = getelementptr inbounds [102 x i32], [102 x i32]* %6, i64 0, i64 %58
  store i32 -1, i32* %59, align 4
  %60 = load i32, i32* %4, align 4
  %61 = add nsw i32 %60, -1
  store i32 %61, i32* %4, align 4
  br label %62

62:                                               ; preds = %56, %52
  br label %63

63:                                               ; preds = %62, %42
  br label %64

64:                                               ; preds = %63
  %65 = load i32, i32* %2, align 4
  %66 = add nsw i32 %65, 1
  store i32 %66, i32* %2, align 4
  br label %24

67:                                               ; preds = %24
  store i32 1, i32* %2, align 4
  br label %68

68:                                               ; preds = %82, %67
  %69 = load i32, i32* %2, align 4
  %70 = load i32, i32* %4, align 4
  %71 = icmp sle i32 %69, %70
  br i1 %71, label %72, label %85

72:                                               ; preds = %68
  %73 = load i32, i32* %2, align 4
  %74 = sext i32 %73 to i64
  %75 = getelementptr inbounds [102 x i32], [102 x i32]* %6, i64 0, i64 %74
  %76 = load i32, i32* %75, align 4
  %77 = sext i32 %76 to i64
  %78 = getelementptr inbounds [102 x i32], [102 x i32]* %7, i64 0, i64 %77
  store i32 1, i32* %78, align 4
  %79 = load i32, i32* %2, align 4
  %80 = sext i32 %79 to i64
  %81 = getelementptr inbounds [102 x i32], [102 x i32]* %6, i64 0, i64 %80
  store i32 -1, i32* %81, align 4
  br label %82

82:                                               ; preds = %72
  %83 = load i32, i32* %2, align 4
  %84 = add nsw i32 %83, 1
  store i32 %84, i32* %2, align 4
  br label %68

85:                                               ; preds = %68
  store i32 0, i32* %2, align 4
  br label %86

86:                                               ; preds = %100, %85
  %87 = load i32, i32* %2, align 4
  %88 = load i32, i32* %3, align 4
  %89 = icmp slt i32 %87, %88
  br i1 %89, label %90, label %103

90:                                               ; preds = %86
  %91 = load i32, i32* %2, align 4
  %92 = sext i32 %91 to i64
  %93 = getelementptr inbounds [102 x i32], [102 x i32]* %7, i64 0, i64 %92
  %94 = load i32, i32* %93, align 4
  %95 = icmp sgt i32 %94, 0
  br i1 %95, label %96, label %99

96:                                               ; preds = %90
  %97 = load i32, i32* %5, align 4
  %98 = add nsw i32 %97, 1
  store i32 %98, i32* %5, align 4
  br label %99

99:                                               ; preds = %96, %90
  br label %100

100:                                              ; preds = %99
  %101 = load i32, i32* %2, align 4
  %102 = add nsw i32 %101, 1
  store i32 %102, i32* %2, align 4
  br label %86

103:                                              ; preds = %86
  store i32 0, i32* %2, align 4
  br label %104

104:                                              ; preds = %148, %103
  %105 = load i32, i32* %2, align 4
  %106 = load i32, i32* %3, align 4
  %107 = icmp slt i32 %105, %106
  br i1 %107, label %108, label %111

108:                                              ; preds = %104
  %109 = load i32, i32* %5, align 4
  %110 = icmp sgt i32 %109, 0
  br label %111

111:                                              ; preds = %108, %104
  %112 = phi i1 [ false, %104 ], [ %110, %108 ]
  br i1 %112, label %113, label %151

113:                                              ; preds = %111
  %114 = load i32, i32* %2, align 4
  %115 = sext i32 %114 to i64
  %116 = getelementptr inbounds [102 x i32], [102 x i32]* %7, i64 0, i64 %115
  %117 = load i32, i32* %116, align 4
  %118 = icmp eq i32 %117, 2
  br i1 %118, label %119, label %123

119:                                              ; preds = %113
  %120 = call i32 (i8*, ...) @printf(i8* getelementptr inbounds ([2 x i8], [2 x i8]* @.str.2, i64 0, i64 0))
  %121 = load i32, i32* %5, align 4
  %122 = add nsw i32 %121, -1
  store i32 %122, i32* %5, align 4
  store i32 1, i32* %8, align 4
  br label %123

123:                                              ; preds = %119, %113
  %124 = load i32, i32* %2, align 4
  %125 = sext i32 %124 to i64
  %126 = getelementptr inbounds [102 x i32], [102 x i32]* %7, i64 0, i64 %125
  %127 = load i32, i32* %126, align 4
  %128 = icmp eq i32 %127, 1
  br i1 %128, label %129, label %133

129:                                              ; preds = %123
  %130 = call i32 (i8*, ...) @printf(i8* getelementptr inbounds ([2 x i8], [2 x i8]* @.str.3, i64 0, i64 0))
  %131 = load i32, i32* %5, align 4
  %132 = add nsw i32 %131, -1
  store i32 %132, i32* %5, align 4
  store i32 1, i32* %8, align 4
  br label %133

133:                                              ; preds = %129, %123
  %134 = load i32, i32* %2, align 4
  %135 = sext i32 %134 to i64
  %136 = getelementptr inbounds [102 x i32], [102 x i32]* %7, i64 0, i64 %135
  %137 = load i32, i32* %136, align 4
  %138 = icmp eq i32 %137, 0
  br i1 %138, label %139, label %144

139:                                              ; preds = %133
  %140 = load i32, i32* %8, align 4
  %141 = icmp eq i32 %140, 1
  br i1 %141, label %142, label %144

142:                                              ; preds = %139
  %143 = call i32 (i8*, ...) @printf(i8* getelementptr inbounds ([2 x i8], [2 x i8]* @.str.4, i64 0, i64 0))
  br label %144

144:                                              ; preds = %142, %139, %133
  %145 = load i32, i32* %2, align 4
  %146 = sext i32 %145 to i64
  %147 = getelementptr inbounds [102 x i32], [102 x i32]* %7, i64 0, i64 %146
  store i32 0, i32* %147, align 4
  br label %148

148:                                              ; preds = %144
  %149 = load i32, i32* %2, align 4
  %150 = add nsw i32 %149, 1
  store i32 %150, i32* %2, align 4
  br label %104

151:                                              ; preds = %111
  store i32 0, i32* %8, align 4
  %152 = call i32 (i8*, ...) @printf(i8* getelementptr inbounds ([2 x i8], [2 x i8]* @.str.5, i64 0, i64 0))
  br label %14

153:                                              ; preds = %14
  ret i32 0
}

; Function Attrs: argmemonly nounwind willreturn
declare void @llvm.memset.p0i8.i64(i8* nocapture writeonly, i8, i64, i1 immarg) #1

declare dso_local i32 @__isoc99_scanf(i8*, ...) #2

declare dso_local i32 @printf(i8*, ...) #2

; Function Attrs: nounwind readonly
declare dso_local i64 @strlen(i8*) #3


!llvm.module.flags = !{!0}
!llvm.ident = !{!1}

!0 = !{i32 1, !"wchar_size", i32 4}
!1 = !{!"clang version 10.0.0-4ubuntu1 "}
